; Function Attrs: nounwind uwtable
define void @Gia_StoFree(ptr noundef %0) local_unnamed_addr #0 {
  %2 = getelementptr inbounds nuw i8, ptr %0, i64 32
  %3 = load ptr, ptr %2, align 8, !tbaa !44
  %4 = getelementptr inbounds nuw i8, ptr %3, i64 8
  %5 = load ptr, ptr %4, align 8, !tbaa !36
  %.not.i = icmp eq ptr %5, null
  br i1 %.not.i, label %Vec_IntFree.exit, label %6

6:                                                ; preds = %1
  tail call void @free(ptr noundef nonnull %5) #26
  br label %Vec_IntFree.exit

Vec_IntFree.exit:                                 ; preds = %1, %6
  tail call void @free(ptr noundef nonnull %3) #26
  %7 = getelementptr inbounds nuw i8, ptr %0, i64 40
  %8 = load ptr, ptr %7, align 8, !tbaa !33
  %9 = load i32, ptr %8, align 8, !tbaa !99
  %10 = icmp sgt i32 %9, 0
  %11 = getelementptr inbounds nuw i8, ptr %8, i64 8
  %.pre.i.i = load ptr, ptr %11, align 8, !tbaa !34
  br i1 %10, label %.lr.ph.i.i, label %._crit_edge.i.i

.lr.ph.i.i:                                       ; preds = %Vec_IntFree.exit, %19
  %12 = phi i32 [ %20, %19 ], [ %9, %Vec_IntFree.exit ]
  %13 = phi ptr [ %21, %19 ], [ %.pre.i.i, %Vec_IntFree.exit ]
  %indvars.iv.i.i = phi i64 [ %indvars.iv.next.i.i, %19 ], [ 0, %Vec_IntFree.exit ]
  %14 = getelementptr inbounds nuw %struct.Vec_Int_t_, ptr %13, i64 %indvars.iv.i.i, i32 2
  %15 = load ptr, ptr %14, align 8, !tbaa !36
  %.not15.i.i = icmp eq ptr %15, null
  br i1 %.not15.i.i, label %19, label %16

16:                                               ; preds = %.lr.ph.i.i
  tail call void @free(ptr noundef nonnull %15) #26
  %17 = load ptr, ptr %11, align 8, !tbaa !34
  %18 = getelementptr inbounds nuw %struct.Vec_Int_t_, ptr %17, i64 %indvars.iv.i.i, i32 2
  store ptr null, ptr %18, align 8, !tbaa !36
  %.pre18.i.i = load i32, ptr %8, align 8, !tbaa !99
  br label %19

19:                                               ; preds = %16, %.lr.ph.i.i
  %20 = phi i32 [ %.pre18.i.i, %16 ], [ %12, %.lr.ph.i.i ]
  %21 = phi ptr [ %17, %16 ], [ %13, %.lr.ph.i.i ]
  %indvars.iv.next.i.i = add nuw nsw i64 %indvars.iv.i.i, 1
  %22 = sext i32 %20 to i64
  %23 = icmp slt i64 %indvars.iv.next.i.i, %22
  br i1 %23, label %.lr.ph.i.i, label %._crit_edge.thread.i.i, !llvm.loop !106

._crit_edge.i.i:                                  ; preds = %Vec_IntFree.exit
  %.not.i.i = icmp eq ptr %.pre.i.i, null
  br i1 %.not.i.i, label %Vec_WecFree.exit, label %._crit_edge.thread.i.i

._crit_edge.thread.i.i:                           ; preds = %19, %._crit_edge.i.i
  %24 = phi ptr [ %.pre.i.i, %._crit_edge.i.i ], [ %21, %19 ]
  tail call void @free(ptr noundef nonnull %24) #26
  br label %Vec_WecFree.exit

Vec_WecFree.exit:                                 ; preds = %._crit_edge.i.i, %._crit_edge.thread.i.i
  tail call void @free(ptr noundef nonnull %8) #26
  %25 = getelementptr inbounds nuw i8, ptr %0, i64 8
  %26 = load i32, ptr %25, align 8, !tbaa !60
  %.not = icmp eq i32 %26, 0
  br i1 %.not, label %.thread, label %27

27:                                               ; preds = %Vec_WecFree.exit
  %28 = getelementptr inbounds nuw i8, ptr %0, i64 48
  %29 = load ptr, ptr %28, align 8, !tbaa !61
  %30 = icmp eq ptr %29, null
  br i1 %30, label %Vec_MemHashFree.exit, label %31

31:                                               ; preds = %27
  %32 = getelementptr inbounds nuw i8, ptr %29, i64 32
  %33 = load ptr, ptr %32, align 8, !tbaa !107
  %34 = icmp eq ptr %33, null
  br i1 %34, label %Vec_IntFreeP.exit.i, label %35

35:                                               ; preds = %31
  %36 = getelementptr inbounds nuw i8, ptr %33, i64 8
  %37 = load ptr, ptr %36, align 8, !tbaa !36
  %.not.i.i10 = icmp eq ptr %37, null
  br i1 %.not.i.i10, label %40, label %.thread.i.i

.thread.i.i:                                      ; preds = %35
  tail call void @free(ptr noundef nonnull %37) #26
  %38 = load ptr, ptr %32, align 8, !tbaa !107
  %39 = getelementptr inbounds nuw i8, ptr %38, i64 8
  store ptr null, ptr %39, align 8, !tbaa !36
  br label %40

40:                                               ; preds = %.thread.i.i, %35
  %41 = phi ptr [ %38, %.thread.i.i ], [ %33, %35 ]
  tail call void @free(ptr noundef nonnull %41) #26
  store ptr null, ptr %32, align 8, !tbaa !107
  br label %Vec_IntFreeP.exit.i

Vec_IntFreeP.exit.i:                              ; preds = %40, %31
  %42 = getelementptr inbounds nuw i8, ptr %29, i64 40
  %43 = load ptr, ptr %42, align 8, !tbaa !107
  %44 = icmp eq ptr %43, null
  br i1 %44, label %Vec_MemHashFree.exit, label %45

45:                                               ; preds = %Vec_IntFreeP.exit.i
  %46 = getelementptr inbounds nuw i8, ptr %43, i64 8
  %47 = load ptr, ptr %46, align 8, !tbaa !36
  %.not.i3.i = icmp eq ptr %47, null
  br i1 %.not.i3.i, label %50, label %.thread.i4.i

.thread.i4.i:                                     ; preds = %45
  tail call void @free(ptr noundef nonnull %47) #26
  %48 = load ptr, ptr %42, align 8, !tbaa !107
  %49 = getelementptr inbounds nuw i8, ptr %48, i64 8
  store ptr null, ptr %49, align 8, !tbaa !36
  br label %50

50:                                               ; preds = %.thread.i4.i, %45
  %51 = phi ptr [ %48, %.thread.i4.i ], [ %43, %45 ]
  tail call void @free(ptr noundef nonnull %51) #26
  store ptr null, ptr %42, align 8, !tbaa !107
  br label %Vec_MemHashFree.exit

Vec_MemHashFree.exit:                             ; preds = %50, %Vec_IntFreeP.exit.i, %27
  %.pr = load i32, ptr %25, align 8, !tbaa !60
  %.not8 = icmp eq i32 %.pr, 0
  br i1 %.not8, label %.thread, label %52

52:                                               ; preds = %Vec_MemHashFree.exit
  %53 = load ptr, ptr %28, align 8, !tbaa !61
  %54 = getelementptr inbounds nuw i8, ptr %53, i64 20
  %55 = load i32, ptr %54, align 4, !tbaa !101
  %.not19.i = icmp slt i32 %55, 0
  %.phi.trans.insert.i = getelementptr inbounds nuw i8, ptr %53, i64 24
  %.pre23.i = load ptr, ptr %.phi.trans.insert.i, align 8, !tbaa !62
  br i1 %.not19.i, label %._crit_edge.i, label %.lr.ph.i

.lr.ph.i:                                         ; preds = %52, %63
  %56 = phi i32 [ %64, %63 ], [ %55, %52 ]
  %57 = phi ptr [ %65, %63 ], [ %.pre23.i, %52 ]
  %indvars.iv.i = phi i64 [ %indvars.iv.next.i, %63 ], [ 0, %52 ]
  %58 = getelementptr inbounds nuw ptr, ptr %57, i64 %indvars.iv.i
  %59 = load ptr, ptr %58, align 8, !tbaa !66
  %.not18.i = icmp eq ptr %59, null
  br i1 %.not18.i, label %63, label %60

60:                                               ; preds = %.lr.ph.i
  tail call void @free(ptr noundef nonnull %59) #26
  %61 = load ptr, ptr %.phi.trans.insert.i, align 8, !tbaa !62
  %62 = getelementptr inbounds nuw ptr, ptr %61, i64 %indvars.iv.i
  store ptr null, ptr %62, align 8, !tbaa !66
  %.pre22.i = load i32, ptr %54, align 4, !tbaa !101
  br label %63

63:                                               ; preds = %60, %.lr.ph.i
  %64 = phi i32 [ %.pre22.i, %60 ], [ %56, %.lr.ph.i ]
  %65 = phi ptr [ %61, %60 ], [ %57, %.lr.ph.i ]
  %indvars.iv.next.i = add nuw nsw i64 %indvars.iv.i, 1
  %66 = sext i32 %64 to i64
  %.not.not.i = icmp slt i64 %indvars.iv.i, %66
  br i1 %.not.not.i, label %.lr.ph.i, label %.loopexit, !llvm.loop !108

._crit_edge.i:                                    ; preds = %52
  %.not16.i = icmp eq ptr %.pre23.i, null
  br i1 %.not16.i, label %.thread13, label %.loopexit

.thread13:                                        ; preds = %._crit_edge.i
  tail call void @free(ptr noundef nonnull %53) #26
  br label %.thread

.loopexit:                                        ; preds = %63, %._crit_edge.i
  %67 = phi ptr [ %.pre23.i, %._crit_edge.i ], [ %65, %63 ]
  tail call void @free(ptr noundef nonnull %67) #26
  tail call void @free(ptr noundef nonnull %53) #26
  %.not9 = icmp eq ptr %0, null
  br i1 %.not9, label %68, label %.thread

.thread:                                          ; preds = %Vec_WecFree.exit, %Vec_MemHashFree.exit, %.thread13, %.loopexit
  tail call void @free(ptr noundef nonnull %0) #26
  br label %68

68:                                               ; preds = %.loopexit, %.thread
  ret void
}